; Function Attrs: nounwind uwtable
define hidden noalias ptr @mi_malloc_aligned(i64 noundef %0, i64 noundef %1) local_unnamed_addr #0 {
  %3 = tail call align 8 ptr @llvm.threadlocal.address.p0(ptr align 8 @_mi_heap_default)
  %4 = load ptr, ptr %3, align 8, !tbaa !17
  %5 = tail call range(i64 0, 65) i64 @llvm.ctpop.i64(i64 %1)
  %6 = icmp samesign ult i64 %5, 2
  br i1 %6, label %7, label %mi_heap_malloc_aligned.exit

7:                                                ; preds = %2
  %8 = tail call range(i64 0, 65) i64 @llvm.ctpop.i64(i64 %0)
  %9 = icmp samesign ult i64 %8, 2
  %.not.i = icmp uge i64 %0, %1
  %or.cond.not14.i = and i1 %9, %.not.i
  %10 = icmp ult i64 %0, 1025
  %or.cond12.i = and i1 %10, %or.cond.not14.i
  br i1 %or.cond12.i, label %11, label %.critedge.i, !prof !16

11:                                               ; preds = %7
  %12 = tail call noalias ptr @mi_heap_malloc_small(ptr noundef %4, i64 noundef %0) #8
  br label %mi_heap_malloc_aligned.exit

.critedge.i:                                      ; preds = %7
  %13 = tail call noalias ptr @mi_heap_malloc_aligned_at(ptr noundef %4, i64 noundef %0, i64 noundef %1, i64 noundef 0)
  br label %mi_heap_malloc_aligned.exit

mi_heap_malloc_aligned.exit:                      ; preds = %2, %11, %.critedge.i
  %.0.i = phi ptr [ %12, %11 ], [ %13, %.critedge.i ], [ null, %2 ]
  ret ptr %.0.i
}